target datalayout = "e-m:e-p270:32:32-p271:32:32-p272:64:64-i64:64-i128:128-f80:128-n8:16:32:64-S128"
target triple = "x86_64-pc-linux-gnu"

%struct.Curl_easy = type { i32, i64, i64, ptr, %struct.Curl_llist_node, %struct.Curl_llist_node, i32, i32, %struct.Curl_message, %struct.easy_pollset, %struct.Names, ptr, ptr, ptr, ptr, %struct.SingleRequest, %struct.UserDefined, ptr, ptr, ptr, %struct.Progress, %struct.UrlState, ptr, %struct.PureInfo, %struct.curl_tlssessioninfo }
%struct.Curl_llist_node = type { ptr, ptr, ptr, ptr }
%struct.Curl_message = type { %struct.Curl_llist_node, %struct.CURLMsg }
%struct.CURLMsg = type { i32, ptr, %union.anon }
%union.anon = type { ptr }
%struct.easy_pollset = type { [5 x i32], i32, [5 x i8] }
%struct.Names = type { ptr, i32 }
%struct.SingleRequest = type <{ i64, i64, i64, i64, %struct.curltime, i32, i32, i32, i32, i64, i32, i32, i8, i8, [2 x i8], i32, ptr, ptr, %struct.bufq, i64, i64, ptr, ptr, %union.anon.0, ptr, i8, i32, [3 x i8] }>
%struct.curltime = type { i64, i32 }
%struct.bufq = type { ptr, ptr, ptr, ptr, i64, i64, i64, i32 }
%union.anon.0 = type { ptr }
%struct.UserDefined = type <{ ptr, ptr, ptr, ptr, ptr, ptr, i64, i64, i64, ptr, ptr, i64, ptr, ptr, ptr, ptr, ptr, ptr, ptr, ptr, ptr, ptr, ptr, ptr, ptr, ptr, ptr, ptr, ptr, ptr, ptr, ptr, ptr, ptr, ptr, i64, i64, i64, i64, i64, i64, i64, i64, i64, ptr, ptr, %struct.curl_mimepart, ptr, ptr, ptr, i64, %struct.ssl_config_data, %struct.ssl_config_data, ptr, i16, i8, i8, %struct.ssl_general_config, i32, i32, i32, [4 x i8], ptr, ptr, i64, i32, i8, i8, i8, i8, ptr, ptr, ptr, i32, [4 x i8], [74 x ptr], [8 x ptr], i32, i32, i32, [4 x i8], ptr, i32, [4 x i8], ptr, ptr, ptr, ptr, ptr, i32, i32, i32, i32, i32, i32, i32, i32, i64, ptr, ptr, i64, ptr, i64, ptr, ptr, ptr, ptr, i32, i16, i16, i16, i8, i8, i8, i8, i8, i8, i8, i8, i64, [6 x i8] }>
%struct.curl_mimepart = type { ptr, ptr, i32, i32, ptr, ptr, ptr, ptr, ptr, ptr, ptr, ptr, ptr, ptr, ptr, i64, %struct.mime_state, ptr, %struct.mime_encoder_state, i64 }
%struct.mime_state = type { i32, ptr, i64 }
%struct.mime_encoder_state = type { i64, i64, i64, [256 x i8] }
%struct.ssl_config_data = type { %struct.ssl_primary_config, i64, ptr, ptr, ptr, ptr, ptr, ptr, ptr, i16 }
%struct.ssl_primary_config = type { ptr, ptr, ptr, ptr, ptr, ptr, ptr, ptr, ptr, ptr, ptr, ptr, ptr, ptr, i8, i32, i8, i8 }
%struct.ssl_general_config = type { i32 }
%struct.Progress = type { i64, %struct.pgrs_dir, %struct.pgrs_dir, i64, i64, i32, i32, i64, i64, i64, i64, i64, i64, i64, i64, i64, %struct.curltime, %struct.curltime, %struct.curltime, %struct.curltime, %struct.curltime, [6 x i64], [6 x %struct.curltime], i32, i8 }
%struct.pgrs_dir = type { i64, i64, i64, %struct.pgrs_measure }
%struct.pgrs_measure = type { %struct.curltime, i64 }
%struct.UrlState = type { %struct.curltime, i64, i64, %struct.dynbuf, ptr, i64, ptr, i32, i32, i32, ptr, i32, i64, i32, ptr, %struct.digestdata, %struct.digestdata, %struct.auth, %struct.auth, %struct.Curl_async, ptr, i8, %struct.curltime, %struct.Curl_tree, %struct.Curl_llist, [15 x %struct.time_node], ptr, ptr, i64, i64, i64, i64, [32 x i8], i64, ptr, ptr, ptr, %struct.urlpieces, ptr, ptr, ptr, ptr, ptr, i64, %struct.dynbuf, %struct.Curl_llist, [2 x %struct.curl_header], ptr, i32, ptr, ptr, %struct.store_netrc, %struct.dynamically_allocated_data, i8, i8, i8, i8, i32 }
%struct.digestdata = type { ptr, ptr, ptr, ptr, ptr, ptr, i32, i8, i8 }
%struct.auth = type { i64, i64, i64, i8 }
%struct.Curl_async = type { ptr, ptr, ptr, ptr, i32, i32, i8 }
%struct.Curl_tree = type { ptr, ptr, ptr, ptr, %struct.curltime, ptr }
%struct.time_node = type { %struct.Curl_llist_node, %struct.curltime, i32 }
%struct.urlpieces = type { ptr, ptr, ptr, ptr, ptr, ptr, ptr, ptr }
%struct.dynbuf = type { ptr, i64, i64, i64 }
%struct.Curl_llist = type { ptr, ptr, ptr, i64 }
%struct.curl_header = type { ptr, ptr, i64, i64, i32, ptr }
%struct.store_netrc = type { %struct.dynbuf, ptr, i8 }
%struct.dynamically_allocated_data = type { ptr, ptr, ptr, ptr, ptr, ptr, ptr, ptr, ptr, ptr, ptr, ptr, ptr, ptr }
%struct.PureInfo = type { i32, i32, i32, i64, i64, i64, i64, i64, i64, i64, ptr, ptr, i64, i32, %struct.ip_quadruple, i32, ptr, i32, %struct.curl_certinfo, i32, i8 }
%struct.ip_quadruple = type { [46 x i8], [46 x i8], i32, i32 }
%struct.curl_certinfo = type { i32, ptr }
%struct.curl_tlssessioninfo = type { i32, ptr }
%struct.CookieInfo = type { [63 x %struct.Curl_llist], i64, i32, i32, i8 }
%struct.Cookie = type { %struct.Curl_llist_node, %struct.Curl_llist_node, ptr, ptr, ptr, ptr, ptr, i64, i32, i8 }

@.str.1 = private unnamed_addr constant [2 x i8] c"/\00", align 1
@Curl_cfree = external global ptr, align 8
@.str.26 = private unnamed_addr constant [11 x i8] c"#HttpOnly_\00", align 1
@.str.28 = private unnamed_addr constant [5 x i8] c"TRUE\00", align 1
@.str.29 = private unnamed_addr constant [6 x i8] c"FALSE\00", align 1
@.str.30 = private unnamed_addr constant [1 x i8] zeroinitializer, align 1
@.str.34 = private unnamed_addr constant [26 x i8] c"%s%s%s\09%s\09%s\09%s\09%ld\09%s\09%s\00", align 1
@.str.35 = private unnamed_addr constant [2 x i8] c".\00", align 1
@.str.36 = private unnamed_addr constant [8 x i8] c"unknown\00", align 1

; Function Attrs: nounwind uwtable
define internal ptr @get_netscape_format(ptr noundef %0) #0 {
  %2 = alloca ptr, align 8
  store ptr %0, ptr %2, align 8, !tbaa !103
  %3 = load ptr, ptr %2, align 8, !tbaa !103
  %4 = getelementptr inbounds nuw %struct.Cookie, ptr %3, i32 0, i32 9
  %5 = load i8, ptr %4, align 4
  %6 = lshr i8 %5, 3
  %7 = and i8 %6, 1
  %8 = zext i8 %7 to i32
  %9 = icmp ne i32 %8, 0
  %10 = select i1 %9, ptr @.str.26, ptr @.str.30
  %11 = load ptr, ptr %2, align 8, !tbaa !103
  %12 = getelementptr inbounds nuw %struct.Cookie, ptr %11, i32 0, i32 9
  %13 = load i8, ptr %12, align 4
  %14 = and i8 %13, 1
  %15 = zext i8 %14 to i32
  %16 = icmp ne i32 %15, 0
  br i1 %16, label %17, label %30

17:                                               ; preds = %1
  %18 = load ptr, ptr %2, align 8, !tbaa !103
  %19 = getelementptr inbounds nuw %struct.Cookie, ptr %18, i32 0, i32 6
  %20 = load ptr, ptr %19, align 8, !tbaa !110
  %21 = icmp ne ptr %20, null
  br i1 %21, label %22, label %30

22:                                               ; preds = %17
  %23 = load ptr, ptr %2, align 8, !tbaa !103
  %24 = getelementptr inbounds nuw %struct.Cookie, ptr %23, i32 0, i32 6
  %25 = load ptr, ptr %24, align 8, !tbaa !110
  %26 = getelementptr inbounds i8, ptr %25, i64 0
  %27 = load i8, ptr %26, align 1, !tbaa !99
  %28 = sext i8 %27 to i32
  %29 = icmp ne i32 %28, 46
  br label %30

30:                                               ; preds = %22, %17, %1
  %31 = phi i1 [ false, %17 ], [ false, %1 ], [ %29, %22 ]
  %32 = select i1 %31, ptr @.str.35, ptr @.str.30
  %33 = load ptr, ptr %2, align 8, !tbaa !103
  %34 = getelementptr inbounds nuw %struct.Cookie, ptr %33, i32 0, i32 6
  %35 = load ptr, ptr %34, align 8, !tbaa !110
  %36 = icmp ne ptr %35, null
  br i1 %36, label %37, label %41

37:                                               ; preds = %30
  %38 = load ptr, ptr %2, align 8, !tbaa !103
  %39 = getelementptr inbounds nuw %struct.Cookie, ptr %38, i32 0, i32 6
  %40 = load ptr, ptr %39, align 8, !tbaa !110
  br label %42

41:                                               ; preds = %30
  br label %42

42:                                               ; preds = %41, %37
  %43 = phi ptr [ %40, %37 ], [ @.str.36, %41 ]
  %44 = load ptr, ptr %2, align 8, !tbaa !103
  %45 = getelementptr inbounds nuw %struct.Cookie, ptr %44, i32 0, i32 9
  %46 = load i8, ptr %45, align 4
  %47 = and i8 %46, 1
  %48 = zext i8 %47 to i32
  %49 = icmp ne i32 %48, 0
  %50 = select i1 %49, ptr @.str.28, ptr @.str.29
  %51 = load ptr, ptr %2, align 8, !tbaa !103
  %52 = getelementptr inbounds nuw %struct.Cookie, ptr %51, i32 0, i32 4
  %53 = load ptr, ptr %52, align 8, !tbaa !105
  %54 = icmp ne ptr %53, null
  br i1 %54, label %55, label %59

55:                                               ; preds = %42
  %56 = load ptr, ptr %2, align 8, !tbaa !103
  %57 = getelementptr inbounds nuw %struct.Cookie, ptr %56, i32 0, i32 4
  %58 = load ptr, ptr %57, align 8, !tbaa !105
  br label %60

59:                                               ; preds = %42
  br label %60

60:                                               ; preds = %59, %55
  %61 = phi ptr [ %58, %55 ], [ @.str.1, %59 ]
  %62 = load ptr, ptr %2, align 8, !tbaa !103
  %63 = getelementptr inbounds nuw %struct.Cookie, ptr %62, i32 0, i32 9
  %64 = load i8, ptr %63, align 4
  %65 = lshr i8 %64, 1
  %66 = and i8 %65, 1
  %67 = zext i8 %66 to i32
  %68 = icmp ne i32 %67, 0
  %69 = select i1 %68, ptr @.str.28, ptr @.str.29
  %70 = load ptr, ptr %2, align 8, !tbaa !103
  %71 = getelementptr inbounds nuw %struct.Cookie, ptr %70, i32 0, i32 7
  %72 = load i64, ptr %71, align 8, !tbaa !107
  %73 = load ptr, ptr %2, align 8, !tbaa !103
  %74 = getelementptr inbounds nuw %struct.Cookie, ptr %73, i32 0, i32 2
  %75 = load ptr, ptr %74, align 8, !tbaa !112
  %76 = load ptr, ptr %2, align 8, !tbaa !103
  %77 = getelementptr inbounds nuw %struct.Cookie, ptr %76, i32 0, i32 3
  %78 = load ptr, ptr %77, align 8, !tbaa !113
  %79 = icmp ne ptr %78, null
  br i1 %79, label %80, label %84

80:                                               ; preds = %60
  %81 = load ptr, ptr %2, align 8, !tbaa !103
  %82 = getelementptr inbounds nuw %struct.Cookie, ptr %81, i32 0, i32 3
  %83 = load ptr, ptr %82, align 8, !tbaa !113
  br label %85

84:                                               ; preds = %60
  br label %85

85:                                               ; preds = %84, %80
  %86 = phi ptr [ %83, %80 ], [ @.str.30, %84 ]
  %87 = call ptr (ptr, ...) @curl_maprintf(ptr noundef @.str.34, ptr noundef %10, ptr noundef %32, ptr noundef %43, ptr noundef %50, ptr noundef %61, ptr noundef %69, i64 noundef %72, ptr noundef %75, ptr noundef %86)
  ret ptr %87
}

; Function Attrs: nounwind uwtable
define internal ptr @cookie_list(ptr noundef %0) #0 {
  %2 = alloca ptr, align 8
  %3 = alloca ptr, align 8
  %4 = alloca ptr, align 8
  %5 = alloca ptr, align 8
  %6 = alloca i32, align 4
  %7 = alloca ptr, align 8
  %8 = alloca i32, align 4
  %9 = alloca ptr, align 8
  %10 = alloca ptr, align 8
  store ptr %0, ptr %3, align 8, !tbaa !3
  call void @llvm.lifetime.start.p0(i64 8, ptr %4) #6
  store ptr null, ptr %4, align 8, !tbaa !77
  call void @llvm.lifetime.start.p0(i64 8, ptr %5) #6
  call void @llvm.lifetime.start.p0(i64 4, ptr %6) #6
  call void @llvm.lifetime.start.p0(i64 8, ptr %7) #6
  %11 = load ptr, ptr %3, align 8, !tbaa !3
  %12 = getelementptr inbounds nuw %struct.Curl_easy, ptr %11, i32 0, i32 17
  %13 = load ptr, ptr %12, align 8, !tbaa !80
  %14 = icmp ne ptr %13, null
  br i1 %14, label %15, label %22

15:                                               ; preds = %1
  %16 = load ptr, ptr %3, align 8, !tbaa !3
  %17 = getelementptr inbounds nuw %struct.Curl_easy, ptr %16, i32 0, i32 17
  %18 = load ptr, ptr %17, align 8, !tbaa !80
  %19 = getelementptr inbounds nuw %struct.CookieInfo, ptr %18, i32 0, i32 2
  %20 = load i32, ptr %19, align 8, !tbaa !114
  %21 = icmp eq i32 %20, 0
  br i1 %21, label %22, label %23

22:                                               ; preds = %15, %1
  store ptr null, ptr %2, align 8
  store i32 1, ptr %8, align 4
  br label %78

23:                                               ; preds = %15
  store i32 0, ptr %6, align 4, !tbaa !93
  br label %24

24:                                               ; preds = %73, %23
  %25 = load i32, ptr %6, align 4, !tbaa !93
  %26 = icmp ult i32 %25, 63
  br i1 %26, label %27, label %76

27:                                               ; preds = %24
  %28 = load ptr, ptr %3, align 8, !tbaa !3
  %29 = getelementptr inbounds nuw %struct.Curl_easy, ptr %28, i32 0, i32 17
  %30 = load ptr, ptr %29, align 8, !tbaa !80
  %31 = getelementptr inbounds nuw %struct.CookieInfo, ptr %30, i32 0, i32 0
  %32 = load i32, ptr %6, align 4, !tbaa !93
  %33 = zext i32 %32 to i64
  %34 = getelementptr inbounds nuw [63 x %struct.Curl_llist], ptr %31, i64 0, i64 %33
  %35 = call ptr @Curl_llist_head(ptr noundef %34)
  store ptr %35, ptr %7, align 8, !tbaa !123
  br label %36

36:                                               ; preds = %69, %27
  %37 = load ptr, ptr %7, align 8, !tbaa !123
  %38 = icmp ne ptr %37, null
  br i1 %38, label %39, label %72

39:                                               ; preds = %36
  call void @llvm.lifetime.start.p0(i64 8, ptr %9) #6
  %40 = load ptr, ptr %7, align 8, !tbaa !123
  %41 = call ptr @Curl_node_elem(ptr noundef %40)
  store ptr %41, ptr %9, align 8, !tbaa !103
  call void @llvm.lifetime.start.p0(i64 8, ptr %10) #6
  %42 = load ptr, ptr %9, align 8, !tbaa !103
  %43 = getelementptr inbounds nuw %struct.Cookie, ptr %42, i32 0, i32 6
  %44 = load ptr, ptr %43, align 8, !tbaa !110
  %45 = icmp ne ptr %44, null
  br i1 %45, label %47, label %46

46:                                               ; preds = %39
  store i32 7, ptr %8, align 4
  br label %66

47:                                               ; preds = %39
  %48 = load ptr, ptr %9, align 8, !tbaa !103
  %49 = call ptr @get_netscape_format(ptr noundef %48)
  store ptr %49, ptr %10, align 8, !tbaa !88
  %50 = load ptr, ptr %10, align 8, !tbaa !88
  %51 = icmp ne ptr %50, null
  br i1 %51, label %54, label %52

52:                                               ; preds = %47
  %53 = load ptr, ptr %4, align 8, !tbaa !77
  call void @curl_slist_free_all(ptr noundef %53)
  store ptr null, ptr %2, align 8
  store i32 1, ptr %8, align 4
  br label %66

54:                                               ; preds = %47
  %55 = load ptr, ptr %4, align 8, !tbaa !77
  %56 = load ptr, ptr %10, align 8, !tbaa !88
  %57 = call ptr @Curl_slist_append_nodup(ptr noundef %55, ptr noundef %56)
  store ptr %57, ptr %5, align 8, !tbaa !77
  %58 = load ptr, ptr %5, align 8, !tbaa !77
  %59 = icmp ne ptr %58, null
  br i1 %59, label %64, label %60

60:                                               ; preds = %54
  %61 = load ptr, ptr @Curl_cfree, align 8, !tbaa !92
  %62 = load ptr, ptr %10, align 8, !tbaa !88
  call void %61(ptr noundef %62)
  %63 = load ptr, ptr %4, align 8, !tbaa !77
  call void @curl_slist_free_all(ptr noundef %63)
  store ptr null, ptr %2, align 8
  store i32 1, ptr %8, align 4
  br label %66

64:                                               ; preds = %54
  %65 = load ptr, ptr %5, align 8, !tbaa !77
  store ptr %65, ptr %4, align 8, !tbaa !77
  store i32 0, ptr %8, align 4
  br label %66

66:                                               ; preds = %64, %60, %52, %46
  call void @llvm.lifetime.end.p0(i64 8, ptr %10) #6
  call void @llvm.lifetime.end.p0(i64 8, ptr %9) #6
  %67 = load i32, ptr %8, align 4
  switch i32 %67, label %78 [
    i32 0, label %68
    i32 7, label %69
  ]

68:                                               ; preds = %66
  br label %69

69:                                               ; preds = %68, %66
  %70 = load ptr, ptr %7, align 8, !tbaa !123
  %71 = call ptr @Curl_node_next(ptr noundef %70)
  store ptr %71, ptr %7, align 8, !tbaa !123
  br label %36, !llvm.loop !141

72:                                               ; preds = %36
  br label %73

73:                                               ; preds = %72
  %74 = load i32, ptr %6, align 4, !tbaa !93
  %75 = add i32 %74, 1
  store i32 %75, ptr %6, align 4, !tbaa !93
  br label %24, !llvm.loop !142

76:                                               ; preds = %24
  %77 = load ptr, ptr %4, align 8, !tbaa !77
  store ptr %77, ptr %2, align 8
  store i32 1, ptr %8, align 4
  br label %78

78:                                               ; preds = %76, %66, %22
  call void @llvm.lifetime.end.p0(i64 8, ptr %7) #6
  call void @llvm.lifetime.end.p0(i64 4, ptr %6) #6
  call void @llvm.lifetime.end.p0(i64 8, ptr %5) #6
  call void @llvm.lifetime.end.p0(i64 8, ptr %4) #6
  %79 = load ptr, ptr %2, align 8
  ret ptr %79
}

; Function Attrs: nounwind uwtable
define hidden ptr @Curl_cookie_list(ptr noundef %0) #0 {
  %2 = alloca ptr, align 8
  %3 = alloca ptr, align 8
  store ptr %0, ptr %2, align 8, !tbaa !3
  call void @llvm.lifetime.start.p0(i64 8, ptr %3) #6
  %4 = load ptr, ptr %2, align 8, !tbaa !3
  %5 = call i32 @Curl_share_lock(ptr noundef %4, i32 noundef 2, i32 noundef 2)
  %6 = load ptr, ptr %2, align 8, !tbaa !3
  %7 = call ptr @cookie_list(ptr noundef %6)
  store ptr %7, ptr %3, align 8, !tbaa !77
  %8 = load ptr, ptr %2, align 8, !tbaa !3
  %9 = call i32 @Curl_share_unlock(ptr noundef %8, i32 noundef 2)
  %10 = load ptr, ptr %3, align 8, !tbaa !77
  call void @llvm.lifetime.end.p0(i64 8, ptr %3) #6
  ret ptr %10
}